; Function Attrs: mustprogress nofree norecurse nosync nounwind willreturn memory(argmem: read) uwtable
define hidden i64 @repeatLastTopRange(ptr noundef readonly captures(none) %0, ptr noundef readonly captures(none) %1) local_unnamed_addr #0 {
  %3 = load i64, ptr %0, align 8
  %4 = getelementptr inbounds nuw i8, ptr %0, i64 8
  %5 = load i8, ptr %4, align 8
  %6 = zext i8 %5 to i64
  %7 = getelementptr inbounds nuw i16, ptr %1, i64 %6
  %8 = getelementptr inbounds i8, ptr %7, i64 -2
  %9 = load i16, ptr %8, align 1
  %10 = zext i16 %9 to i64
  %11 = add i64 %3, %10
  ret i64 %11
}